target datalayout = "e-m:e-p270:32:32-p271:32:32-p272:64:64-i64:64-i128:128-f80:128-n8:16:32:64-S128"
target triple = "x86_64-pc-linux-gnu"

@hf_mpls_pm_version = internal global i32 0, align 4
@hf_mpls_pm_flags = internal global i32 0, align 4
@hf_mpls_pm_flags_r = internal global i32 0, align 4
@hf_mpls_pm_flags_t = internal global i32 0, align 4
@hf_mpls_pm_flags_res = internal global i32 0, align 4
@hf_mpls_pm_query_ctrl_code = internal global i32 0, align 4
@hf_mpls_pm_response_ctrl_code = internal global i32 0, align 4
@hf_mpls_pm_length = internal global i32 0, align 4
@hf_mpls_pm_dflags = internal global i32 0, align 4
@hf_mpls_pm_dflags_x = internal global i32 0, align 4
@hf_mpls_pm_dflags_b = internal global i32 0, align 4
@hf_mpls_pm_dflags_res = internal global i32 0, align 4
@hf_mpls_pm_session_id = internal global i32 0, align 4
@hf_mpls_pm_ds = internal global i32 0, align 4
@hf_mpls_pm_qtf_combined = internal global i32 0, align 4
@hf_mpls_pm_rtf_combined = internal global i32 0, align 4
@hf_mpls_pm_rptf_combined = internal global i32 0, align 4
@ett_mpls_pm = internal global i32 0, align 4
@ett_mpls_pm_flags = internal global i32 0, align 4
@ett_mpls_pm_dflags = internal global i32 0, align 4
@proto_mpls_pm_dlm_dm = internal global i32 0, align 4
@proto_mpls_pm_ilm_dm = internal global i32 0, align 4
@.str.121 = private unnamed_addr constant [1 x i8] zeroinitializer, align 1

; Function Attrs: null_pointer_is_valid sspstrong uwtable
define internal void @dissect_mpls_pm_combined(ptr noundef %0, ptr noundef %1, ptr noundef %2, i8 noundef zeroext %3) #0 {
  %5 = alloca ptr, align 8
  %6 = alloca ptr, align 8
  %7 = alloca ptr, align 8
  %8 = alloca i8, align 1
  %9 = alloca ptr, align 8
  %10 = alloca ptr, align 8
  %11 = alloca ptr, align 8
  %12 = alloca ptr, align 8
  %13 = alloca i32, align 4
  %14 = alloca i8, align 1
  %15 = alloca i8, align 1
  %16 = alloca i8, align 1
  %17 = alloca i32, align 4
  %18 = alloca i8, align 1
  %19 = alloca i8, align 1
  %20 = alloca i8, align 1
  %21 = alloca i8, align 1
  %22 = alloca i8, align 1
  %23 = alloca i32, align 4
  store ptr %0, ptr %5, align 8
  store ptr %1, ptr %6, align 8
  store ptr %2, ptr %7, align 8
  store i8 %3, ptr %8, align 1
  call void @llvm.lifetime.start.p0(i64 8, ptr %9) #3
  store ptr null, ptr %9, align 8
  call void @llvm.lifetime.start.p0(i64 8, ptr %10) #3
  call void @llvm.lifetime.start.p0(i64 8, ptr %11) #3
  call void @llvm.lifetime.start.p0(i64 8, ptr %12) #3
  call void @llvm.lifetime.start.p0(i64 4, ptr %13) #3
  store i32 0, ptr %13, align 4
  call void @llvm.lifetime.start.p0(i64 1, ptr %14) #3
  store i8 0, ptr %14, align 1
  call void @llvm.lifetime.start.p0(i64 1, ptr %15) #3
  store i8 0, ptr %15, align 1
  call void @llvm.lifetime.start.p0(i64 1, ptr %16) #3
  store i8 0, ptr %16, align 1
  call void @llvm.lifetime.start.p0(i64 4, ptr %17) #3
  store i32 0, ptr %17, align 4
  call void @llvm.lifetime.start.p0(i64 1, ptr %18) #3
  store i8 0, ptr %18, align 1
  call void @llvm.lifetime.start.p0(i64 1, ptr %19) #3
  call void @llvm.lifetime.start.p0(i64 1, ptr %20) #3
  call void @llvm.lifetime.start.p0(i64 1, ptr %21) #3
  call void @llvm.lifetime.start.p0(i64 1, ptr %22) #3
  %24 = load ptr, ptr %5, align 8
  %25 = load ptr, ptr %6, align 8
  %26 = load i8, ptr %8, align 1
  %27 = zext i8 %26 to i32
  %28 = call ptr @val_to_str_const(i32 noundef %27, ptr noundef @pmt_vals, ptr noundef @.str.121)
  call void @mpls_pm_build_cinfo(ptr noundef %24, ptr noundef %25, ptr noundef %28, ptr noundef %14, ptr noundef %15, ptr noundef %16, ptr noundef %17, ptr noundef %18)
  %29 = load ptr, ptr %7, align 8
  %30 = icmp ne ptr %29, null
  br i1 %30, label %32, label %31

31:                                               ; preds = %4
  store i32 1, ptr %23, align 4
  br label %225

32:                                               ; preds = %4
  %33 = load i8, ptr %8, align 1
  %34 = zext i8 %33 to i32
  %35 = icmp eq i32 %34, 4
  br i1 %35, label %36, label %41

36:                                               ; preds = %32
  %37 = load ptr, ptr %7, align 8
  %38 = load i32, ptr @proto_mpls_pm_dlm_dm, align 4
  %39 = load ptr, ptr %5, align 8
  %40 = call ptr @proto_tree_add_item(ptr noundef %37, i32 noundef %38, ptr noundef %39, i32 noundef 0, i32 noundef -1, i32 noundef 0)
  store ptr %40, ptr %9, align 8
  br label %46

41:                                               ; preds = %32
  %42 = load ptr, ptr %7, align 8
  %43 = load i32, ptr @proto_mpls_pm_ilm_dm, align 4
  %44 = load ptr, ptr %5, align 8
  %45 = call ptr @proto_tree_add_item(ptr noundef %42, i32 noundef %43, ptr noundef %44, i32 noundef 0, i32 noundef -1, i32 noundef 0)
  store ptr %45, ptr %9, align 8
  br label %46

46:                                               ; preds = %41, %36
  %47 = load ptr, ptr %9, align 8
  %48 = load i32, ptr @ett_mpls_pm, align 4
  %49 = call ptr @proto_item_add_subtree(ptr noundef %47, i32 noundef %48)
  store ptr %49, ptr %10, align 8
  %50 = load ptr, ptr %10, align 8
  %51 = load i32, ptr @hf_mpls_pm_version, align 4
  %52 = load ptr, ptr %5, align 8
  %53 = load i32, ptr %13, align 4
  %54 = call ptr @proto_tree_add_item(ptr noundef %50, i32 noundef %51, ptr noundef %52, i32 noundef %53, i32 noundef 1, i32 noundef 0)
  %55 = load ptr, ptr %10, align 8
  %56 = load i32, ptr @hf_mpls_pm_flags, align 4
  %57 = load ptr, ptr %5, align 8
  %58 = load i32, ptr %13, align 4
  %59 = call ptr @proto_tree_add_item(ptr noundef %55, i32 noundef %56, ptr noundef %57, i32 noundef %58, i32 noundef 1, i32 noundef 0)
  store ptr %59, ptr %9, align 8
  %60 = load ptr, ptr %9, align 8
  %61 = load i32, ptr @ett_mpls_pm_flags, align 4
  %62 = call ptr @proto_item_add_subtree(ptr noundef %60, i32 noundef %61)
  store ptr %62, ptr %11, align 8
  %63 = load ptr, ptr %11, align 8
  %64 = load i32, ptr @hf_mpls_pm_flags_r, align 4
  %65 = load ptr, ptr %5, align 8
  %66 = load i32, ptr %13, align 4
  %67 = call ptr @proto_tree_add_item(ptr noundef %63, i32 noundef %64, ptr noundef %65, i32 noundef %66, i32 noundef 1, i32 noundef 0)
  %68 = load ptr, ptr %11, align 8
  %69 = load i32, ptr @hf_mpls_pm_flags_t, align 4
  %70 = load ptr, ptr %5, align 8
  %71 = load i32, ptr %13, align 4
  %72 = call ptr @proto_tree_add_item(ptr noundef %68, i32 noundef %69, ptr noundef %70, i32 noundef %71, i32 noundef 1, i32 noundef 0)
  %73 = load ptr, ptr %11, align 8
  %74 = load i32, ptr @hf_mpls_pm_flags_res, align 4
  %75 = load ptr, ptr %5, align 8
  %76 = load i32, ptr %13, align 4
  %77 = call ptr @proto_tree_add_item(ptr noundef %73, i32 noundef %74, ptr noundef %75, i32 noundef %76, i32 noundef 1, i32 noundef 0)
  %78 = load i32, ptr %13, align 4
  %79 = add i32 %78, 1
  store i32 %79, ptr %13, align 4
  %80 = load i8, ptr %14, align 1, !range !6, !noundef !7
  %81 = trunc i8 %80 to i1
  br i1 %81, label %82, label %88

82:                                               ; preds = %46
  %83 = load ptr, ptr %10, align 8
  %84 = load i32, ptr @hf_mpls_pm_query_ctrl_code, align 4
  %85 = load ptr, ptr %5, align 8
  %86 = load i32, ptr %13, align 4
  %87 = call ptr @proto_tree_add_item(ptr noundef %83, i32 noundef %84, ptr noundef %85, i32 noundef %86, i32 noundef 1, i32 noundef 0)
  br label %94

88:                                               ; preds = %46
  %89 = load ptr, ptr %10, align 8
  %90 = load i32, ptr @hf_mpls_pm_response_ctrl_code, align 4
  %91 = load ptr, ptr %5, align 8
  %92 = load i32, ptr %13, align 4
  %93 = call ptr @proto_tree_add_item(ptr noundef %89, i32 noundef %90, ptr noundef %91, i32 noundef %92, i32 noundef 1, i32 noundef 0)
  br label %94

94:                                               ; preds = %88, %82
  %95 = load i32, ptr %13, align 4
  %96 = add i32 %95, 1
  store i32 %96, ptr %13, align 4
  %97 = load ptr, ptr %10, align 8
  %98 = load i32, ptr @hf_mpls_pm_length, align 4
  %99 = load ptr, ptr %5, align 8
  %100 = load i32, ptr %13, align 4
  %101 = call ptr @proto_tree_add_item(ptr noundef %97, i32 noundef %98, ptr noundef %99, i32 noundef %100, i32 noundef 2, i32 noundef 0)
  %102 = load i32, ptr %13, align 4
  %103 = add i32 %102, 2
  store i32 %103, ptr %13, align 4
  %104 = load ptr, ptr %10, align 8
  %105 = load i32, ptr @hf_mpls_pm_dflags, align 4
  %106 = load ptr, ptr %5, align 8
  %107 = load i32, ptr %13, align 4
  %108 = call ptr @proto_tree_add_item(ptr noundef %104, i32 noundef %105, ptr noundef %106, i32 noundef %107, i32 noundef 1, i32 noundef 0)
  store ptr %108, ptr %9, align 8
  %109 = load ptr, ptr %9, align 8
  %110 = load i32, ptr @ett_mpls_pm_dflags, align 4
  %111 = call ptr @proto_item_add_subtree(ptr noundef %109, i32 noundef %110)
  store ptr %111, ptr %12, align 8
  %112 = load ptr, ptr %12, align 8
  %113 = load i32, ptr @hf_mpls_pm_dflags_x, align 4
  %114 = load ptr, ptr %5, align 8
  %115 = load i32, ptr %13, align 4
  %116 = call ptr @proto_tree_add_item(ptr noundef %112, i32 noundef %113, ptr noundef %114, i32 noundef %115, i32 noundef 1, i32 noundef 0)
  %117 = load ptr, ptr %5, align 8
  %118 = load i32, ptr %13, align 4
  %119 = call zeroext i8 @tvb_get_uint8(ptr noundef %117, i32 noundef %118)
  %120 = zext i8 %119 to i32
  %121 = and i32 %120, 64
  %122 = icmp ne i32 %121, 0
  %123 = select i1 %122, i32 1, i32 0
  %124 = icmp ne i32 %123, 0
  %125 = zext i1 %124 to i8
  store i8 %125, ptr %21, align 1
  %126 = load ptr, ptr %12, align 8
  %127 = load i32, ptr @hf_mpls_pm_dflags_b, align 4
  %128 = load ptr, ptr %5, align 8
  %129 = load i32, ptr %13, align 4
  %130 = call ptr @proto_tree_add_item(ptr noundef %126, i32 noundef %127, ptr noundef %128, i32 noundef %129, i32 noundef 1, i32 noundef 0)
  %131 = load ptr, ptr %12, align 8
  %132 = load i32, ptr @hf_mpls_pm_dflags_res, align 4
  %133 = load ptr, ptr %5, align 8
  %134 = load i32, ptr %13, align 4
  %135 = call ptr @proto_tree_add_item(ptr noundef %131, i32 noundef %132, ptr noundef %133, i32 noundef %134, i32 noundef 1, i32 noundef 0)
  %136 = load ptr, ptr %5, align 8
  %137 = load i32, ptr %13, align 4
  %138 = call zeroext i8 @tvb_get_uint8(ptr noundef %136, i32 noundef %137)
  %139 = zext i8 %138 to i32
  %140 = and i32 %139, 15
  %141 = trunc i32 %140 to i8
  store i8 %141, ptr %19, align 1
  %142 = load ptr, ptr %10, align 8
  %143 = load i32, ptr @hf_mpls_pm_qtf_combined, align 4
  %144 = load ptr, ptr %5, align 8
  %145 = load i32, ptr %13, align 4
  %146 = call ptr @proto_tree_add_item(ptr noundef %142, i32 noundef %143, ptr noundef %144, i32 noundef %145, i32 noundef 1, i32 noundef 0)
  %147 = load i32, ptr %13, align 4
  %148 = add i32 %147, 1
  store i32 %148, ptr %13, align 4
  %149 = load ptr, ptr %5, align 8
  %150 = load i32, ptr %13, align 4
  %151 = call zeroext i8 @tvb_get_uint8(ptr noundef %149, i32 noundef %150)
  %152 = zext i8 %151 to i32
  %153 = and i32 %152, 15
  %154 = trunc i32 %153 to i8
  store i8 %154, ptr %20, align 1
  %155 = load ptr, ptr %10, align 8
  %156 = load i32, ptr @hf_mpls_pm_rtf_combined, align 4
  %157 = load ptr, ptr %5, align 8
  %158 = load i32, ptr %13, align 4
  %159 = call ptr @proto_tree_add_item(ptr noundef %155, i32 noundef %156, ptr noundef %157, i32 noundef %158, i32 noundef 1, i32 noundef 0)
  %160 = load ptr, ptr %10, align 8
  %161 = load i32, ptr @hf_mpls_pm_rptf_combined, align 4
  %162 = load ptr, ptr %5, align 8
  %163 = load i32, ptr %13, align 4
  %164 = call ptr @proto_tree_add_item(ptr noundef %160, i32 noundef %161, ptr noundef %162, i32 noundef %163, i32 noundef 1, i32 noundef 0)
  %165 = load i32, ptr %13, align 4
  %166 = add i32 %165, 1
  store i32 %166, ptr %13, align 4
  %167 = load i32, ptr %13, align 4
  %168 = add i32 %167, 2
  store i32 %168, ptr %13, align 4
  %169 = load ptr, ptr %10, align 8
  %170 = load i32, ptr @hf_mpls_pm_session_id, align 4
  %171 = load ptr, ptr %5, align 8
  %172 = load i32, ptr %13, align 4
  %173 = load i32, ptr %17, align 4
  %174 = call ptr @proto_tree_add_uint(ptr noundef %169, i32 noundef %170, ptr noundef %171, i32 noundef %172, i32 noundef 4, i32 noundef %173)
  %175 = load i8, ptr %16, align 1, !range !6, !noundef !7
  %176 = trunc i8 %175 to i1
  br i1 %176, label %177, label %184

177:                                              ; preds = %94
  %178 = load ptr, ptr %10, align 8
  %179 = load i32, ptr @hf_mpls_pm_ds, align 4
  %180 = load ptr, ptr %5, align 8
  %181 = load i32, ptr %13, align 4
  %182 = add i32 %181, 3
  %183 = call ptr @proto_tree_add_item(ptr noundef %178, i32 noundef %179, ptr noundef %180, i32 noundef %182, i32 noundef 1, i32 noundef 0)
  br label %184

184:                                              ; preds = %177, %94
  %185 = load i32, ptr %13, align 4
  %186 = add i32 %185, 4
  store i32 %186, ptr %13, align 4
  store i8 1, ptr %22, align 1
  br label %187

187:                                              ; preds = %202, %184
  %188 = load i8, ptr %22, align 1
  %189 = zext i8 %188 to i32
  %190 = icmp sle i32 %189, 4
  br i1 %190, label %191, label %205

191:                                              ; preds = %187
  %192 = load ptr, ptr %5, align 8
  %193 = load ptr, ptr %10, align 8
  %194 = load i32, ptr %13, align 4
  %195 = load i8, ptr %19, align 1
  %196 = load i8, ptr %20, align 1
  %197 = load i8, ptr %14, align 1, !range !6, !noundef !7
  %198 = trunc i8 %197 to i1
  %199 = load i8, ptr %22, align 1
  call void @mpls_pm_dissect_timestamp(ptr noundef %192, ptr noundef %193, i32 noundef %194, i8 noundef zeroext %195, i8 noundef zeroext %196, i1 noundef zeroext %198, i8 noundef zeroext %199)
  %200 = load i32, ptr %13, align 4
  %201 = add i32 %200, 8
  store i32 %201, ptr %13, align 4
  br label %202

202:                                              ; preds = %191
  %203 = load i8, ptr %22, align 1
  %204 = add i8 %203, 1
  store i8 %204, ptr %22, align 1
  br label %187, !llvm.loop !11

205:                                              ; preds = %187
  store i8 1, ptr %22, align 1
  br label %206

206:                                              ; preds = %221, %205
  %207 = load i8, ptr %22, align 1
  %208 = zext i8 %207 to i32
  %209 = icmp sle i32 %208, 4
  br i1 %209, label %210, label %224

210:                                              ; preds = %206
  %211 = load ptr, ptr %5, align 8
  %212 = load ptr, ptr %10, align 8
  %213 = load i32, ptr %13, align 4
  %214 = load i8, ptr %14, align 1, !range !6, !noundef !7
  %215 = trunc i8 %214 to i1
  %216 = load i8, ptr %21, align 1, !range !6, !noundef !7
  %217 = trunc i8 %216 to i1
  %218 = load i8, ptr %22, align 1
  call void @mpls_pm_dissect_counter(ptr noundef %211, ptr noundef %212, i32 noundef %213, i1 noundef zeroext %215, i1 noundef zeroext %217, i8 noundef zeroext %218)
  %219 = load i32, ptr %13, align 4
  %220 = add i32 %219, 8
  store i32 %220, ptr %13, align 4
  br label %221

221:                                              ; preds = %210
  %222 = load i8, ptr %22, align 1
  %223 = add i8 %222, 1
  store i8 %223, ptr %22, align 1
  br label %206, !llvm.loop !12

224:                                              ; preds = %206
  store i32 0, ptr %23, align 4
  br label %225

225:                                              ; preds = %224, %31
  call void @llvm.lifetime.end.p0(i64 1, ptr %22) #3
  call void @llvm.lifetime.end.p0(i64 1, ptr %21) #3
  call void @llvm.lifetime.end.p0(i64 1, ptr %20) #3
  call void @llvm.lifetime.end.p0(i64 1, ptr %19) #3
  call void @llvm.lifetime.end.p0(i64 1, ptr %18) #3
  call void @llvm.lifetime.end.p0(i64 4, ptr %17) #3
  call void @llvm.lifetime.end.p0(i64 1, ptr %16) #3
  call void @llvm.lifetime.end.p0(i64 1, ptr %15) #3
  call void @llvm.lifetime.end.p0(i64 1, ptr %14) #3
  call void @llvm.lifetime.end.p0(i64 4, ptr %13) #3
  call void @llvm.lifetime.end.p0(i64 8, ptr %12) #3
  call void @llvm.lifetime.end.p0(i64 8, ptr %11) #3
  call void @llvm.lifetime.end.p0(i64 8, ptr %10) #3
  call void @llvm.lifetime.end.p0(i64 8, ptr %9) #3
  %226 = load i32, ptr %23, align 4
  switch i32 %226, label %228 [
    i32 0, label %227
    i32 1, label %227
  ]

227:                                              ; preds = %225, %225
  ret void

228:                                              ; preds = %225
  unreachable
}